target datalayout = "e-m:e-p270:32:32-p271:32:32-p272:64:64-i64:64-i128:128-f80:128-n8:16:32:64-S128"
target triple = "x86_64-pc-linux-gnu"

%struct.jpeg_decompress_struct = type { ptr, ptr, ptr, ptr, i32, i32, ptr, i32, i32, i32, i32, i32, i32, i32, double, i32, i32, i32, i32, i32, i32, i32, i32, i32, i32, i32, i32, i32, i32, i32, i32, i32, i32, ptr, i32, i32, i32, i32, i32, ptr, [4 x ptr], [4 x ptr], [4 x ptr], i32, ptr, i32, i32, [16 x i8], [16 x i8], [16 x i8], i32, i32, i8, i8, i8, i16, i16, i32, i8, i32, ptr, i32, i32, i32, i32, ptr, i32, [4 x ptr], i32, i32, i32, [10 x i32], i32, i32, i32, i32, i32, ptr, ptr, ptr, ptr, ptr, ptr, ptr, ptr, ptr, ptr, ptr }
%struct.jpeg_error_mgr = type { ptr, ptr, ptr, ptr, ptr, i32, %union.anon, i32, i64, ptr, i32, ptr, i32, i32 }
%union.anon = type { [8 x i32], [48 x i8] }
%struct.bmp_dest_struct = type { %struct.djpeg_dest_struct, i32, ptr, i32, i32, i32, i32, i32, ptr }
%struct.djpeg_dest_struct = type { ptr, ptr, ptr, ptr, ptr, ptr, ptr, ptr, i32 }

; Function Attrs: nounwind uwtable
define internal void @write_colormap(ptr noundef %0, ptr noundef %1, i32 noundef %2, i32 noundef %3) #0 {
  %5 = alloca ptr, align 8
  %6 = alloca ptr, align 8
  %7 = alloca i32, align 4
  %8 = alloca i32, align 4
  %9 = alloca ptr, align 8
  %10 = alloca i32, align 4
  %11 = alloca ptr, align 8
  %12 = alloca i32, align 4
  store ptr %0, ptr %5, align 8, !tbaa !4
  store ptr %1, ptr %6, align 8, !tbaa !43
  store i32 %2, ptr %7, align 4, !tbaa !9
  store i32 %3, ptr %8, align 4, !tbaa !9
  call void @llvm.lifetime.start.p0(i64 8, ptr %9) #7
  %13 = load ptr, ptr %5, align 8, !tbaa !4
  %14 = getelementptr inbounds nuw %struct.jpeg_decompress_struct, ptr %13, i32 0, i32 33
  %15 = load ptr, ptr %14, align 8, !tbaa !103
  store ptr %15, ptr %9, align 8, !tbaa !87
  call void @llvm.lifetime.start.p0(i64 4, ptr %10) #7
  %16 = load ptr, ptr %5, align 8, !tbaa !4
  %17 = getelementptr inbounds nuw %struct.jpeg_decompress_struct, ptr %16, i32 0, i32 32
  %18 = load i32, ptr %17, align 4, !tbaa !104
  store i32 %18, ptr %10, align 4, !tbaa !9
  call void @llvm.lifetime.start.p0(i64 8, ptr %11) #7
  %19 = load ptr, ptr %6, align 8, !tbaa !43
  %20 = getelementptr inbounds nuw %struct.bmp_dest_struct, ptr %19, i32 0, i32 0
  %21 = getelementptr inbounds nuw %struct.djpeg_dest_struct, ptr %20, i32 0, i32 4
  %22 = load ptr, ptr %21, align 8, !tbaa !81
  store ptr %22, ptr %11, align 8, !tbaa !82
  call void @llvm.lifetime.start.p0(i64 4, ptr %12) #7
  %23 = load ptr, ptr %9, align 8, !tbaa !87
  %24 = icmp ne ptr %23, null
  br i1 %24, label %25, label %123

25:                                               ; preds = %4
  %26 = load ptr, ptr %5, align 8, !tbaa !4
  %27 = getelementptr inbounds nuw %struct.jpeg_decompress_struct, ptr %26, i32 0, i32 29
  %28 = load i32, ptr %27, align 8, !tbaa !105
  %29 = icmp eq i32 %28, 3
  br i1 %29, label %30, label %76

30:                                               ; preds = %25
  store i32 0, ptr %12, align 4, !tbaa !9
  br label %31

31:                                               ; preds = %72, %30
  %32 = load i32, ptr %12, align 4, !tbaa !9
  %33 = load i32, ptr %10, align 4, !tbaa !9
  %34 = icmp slt i32 %32, %33
  br i1 %34, label %35, label %75

35:                                               ; preds = %31
  %36 = load ptr, ptr %9, align 8, !tbaa !87
  %37 = getelementptr inbounds ptr, ptr %36, i64 2
  %38 = load ptr, ptr %37, align 8, !tbaa !88
  %39 = load i32, ptr %12, align 4, !tbaa !9
  %40 = sext i32 %39 to i64
  %41 = getelementptr inbounds i8, ptr %38, i64 %40
  %42 = load i8, ptr %41, align 1, !tbaa !38
  %43 = zext i8 %42 to i32
  %44 = load ptr, ptr %11, align 8, !tbaa !82
  %45 = call i32 @putc(i32 noundef %43, ptr noundef %44)
  %46 = load ptr, ptr %9, align 8, !tbaa !87
  %47 = getelementptr inbounds ptr, ptr %46, i64 1
  %48 = load ptr, ptr %47, align 8, !tbaa !88
  %49 = load i32, ptr %12, align 4, !tbaa !9
  %50 = sext i32 %49 to i64
  %51 = getelementptr inbounds i8, ptr %48, i64 %50
  %52 = load i8, ptr %51, align 1, !tbaa !38
  %53 = zext i8 %52 to i32
  %54 = load ptr, ptr %11, align 8, !tbaa !82
  %55 = call i32 @putc(i32 noundef %53, ptr noundef %54)
  %56 = load ptr, ptr %9, align 8, !tbaa !87
  %57 = getelementptr inbounds ptr, ptr %56, i64 0
  %58 = load ptr, ptr %57, align 8, !tbaa !88
  %59 = load i32, ptr %12, align 4, !tbaa !9
  %60 = sext i32 %59 to i64
  %61 = getelementptr inbounds i8, ptr %58, i64 %60
  %62 = load i8, ptr %61, align 1, !tbaa !38
  %63 = zext i8 %62 to i32
  %64 = load ptr, ptr %11, align 8, !tbaa !82
  %65 = call i32 @putc(i32 noundef %63, ptr noundef %64)
  %66 = load i32, ptr %8, align 4, !tbaa !9
  %67 = icmp eq i32 %66, 4
  br i1 %67, label %68, label %71

68:                                               ; preds = %35
  %69 = load ptr, ptr %11, align 8, !tbaa !82
  %70 = call i32 @putc(i32 noundef 0, ptr noundef %69)
  br label %71

71:                                               ; preds = %68, %35
  br label %72

72:                                               ; preds = %71
  %73 = load i32, ptr %12, align 4, !tbaa !9
  %74 = add nsw i32 %73, 1
  store i32 %74, ptr %12, align 4, !tbaa !9
  br label %31, !llvm.loop !106

75:                                               ; preds = %31
  br label %122

76:                                               ; preds = %25
  store i32 0, ptr %12, align 4, !tbaa !9
  br label %77

77:                                               ; preds = %118, %76
  %78 = load i32, ptr %12, align 4, !tbaa !9
  %79 = load i32, ptr %10, align 4, !tbaa !9
  %80 = icmp slt i32 %78, %79
  br i1 %80, label %81, label %121

81:                                               ; preds = %77
  %82 = load ptr, ptr %9, align 8, !tbaa !87
  %83 = getelementptr inbounds ptr, ptr %82, i64 0
  %84 = load ptr, ptr %83, align 8, !tbaa !88
  %85 = load i32, ptr %12, align 4, !tbaa !9
  %86 = sext i32 %85 to i64
  %87 = getelementptr inbounds i8, ptr %84, i64 %86
  %88 = load i8, ptr %87, align 1, !tbaa !38
  %89 = zext i8 %88 to i32
  %90 = load ptr, ptr %11, align 8, !tbaa !82
  %91 = call i32 @putc(i32 noundef %89, ptr noundef %90)
  %92 = load ptr, ptr %9, align 8, !tbaa !87
  %93 = getelementptr inbounds ptr, ptr %92, i64 0
  %94 = load ptr, ptr %93, align 8, !tbaa !88
  %95 = load i32, ptr %12, align 4, !tbaa !9
  %96 = sext i32 %95 to i64
  %97 = getelementptr inbounds i8, ptr %94, i64 %96
  %98 = load i8, ptr %97, align 1, !tbaa !38
  %99 = zext i8 %98 to i32
  %100 = load ptr, ptr %11, align 8, !tbaa !82
  %101 = call i32 @putc(i32 noundef %99, ptr noundef %100)
  %102 = load ptr, ptr %9, align 8, !tbaa !87
  %103 = getelementptr inbounds ptr, ptr %102, i64 0
  %104 = load ptr, ptr %103, align 8, !tbaa !88
  %105 = load i32, ptr %12, align 4, !tbaa !9
  %106 = sext i32 %105 to i64
  %107 = getelementptr inbounds i8, ptr %104, i64 %106
  %108 = load i8, ptr %107, align 1, !tbaa !38
  %109 = zext i8 %108 to i32
  %110 = load ptr, ptr %11, align 8, !tbaa !82
  %111 = call i32 @putc(i32 noundef %109, ptr noundef %110)
  %112 = load i32, ptr %8, align 4, !tbaa !9
  %113 = icmp eq i32 %112, 4
  br i1 %113, label %114, label %117

114:                                              ; preds = %81
  %115 = load ptr, ptr %11, align 8, !tbaa !82
  %116 = call i32 @putc(i32 noundef 0, ptr noundef %115)
  br label %117

117:                                              ; preds = %114, %81
  br label %118

118:                                              ; preds = %117
  %119 = load i32, ptr %12, align 4, !tbaa !9
  %120 = add nsw i32 %119, 1
  store i32 %120, ptr %12, align 4, !tbaa !9
  br label %77, !llvm.loop !107

121:                                              ; preds = %77
  br label %122

122:                                              ; preds = %121, %75
  br label %147

123:                                              ; preds = %4
  store i32 0, ptr %12, align 4, !tbaa !9
  br label %124

124:                                              ; preds = %143, %123
  %125 = load i32, ptr %12, align 4, !tbaa !9
  %126 = icmp slt i32 %125, 256
  br i1 %126, label %127, label %146

127:                                              ; preds = %124
  %128 = load i32, ptr %12, align 4, !tbaa !9
  %129 = load ptr, ptr %11, align 8, !tbaa !82
  %130 = call i32 @putc(i32 noundef %128, ptr noundef %129)
  %131 = load i32, ptr %12, align 4, !tbaa !9
  %132 = load ptr, ptr %11, align 8, !tbaa !82
  %133 = call i32 @putc(i32 noundef %131, ptr noundef %132)
  %134 = load i32, ptr %12, align 4, !tbaa !9
  %135 = load ptr, ptr %11, align 8, !tbaa !82
  %136 = call i32 @putc(i32 noundef %134, ptr noundef %135)
  %137 = load i32, ptr %8, align 4, !tbaa !9
  %138 = icmp eq i32 %137, 4
  br i1 %138, label %139, label %142

139:                                              ; preds = %127
  %140 = load ptr, ptr %11, align 8, !tbaa !82
  %141 = call i32 @putc(i32 noundef 0, ptr noundef %140)
  br label %142

142:                                              ; preds = %139, %127
  br label %143

143:                                              ; preds = %142
  %144 = load i32, ptr %12, align 4, !tbaa !9
  %145 = add nsw i32 %144, 1
  store i32 %145, ptr %12, align 4, !tbaa !9
  br label %124, !llvm.loop !108

146:                                              ; preds = %124
  br label %147

147:                                              ; preds = %146, %122
  %148 = load i32, ptr %12, align 4, !tbaa !9
  %149 = load i32, ptr %7, align 4, !tbaa !9
  %150 = icmp sgt i32 %148, %149
  br i1 %150, label %151, label %168

151:                                              ; preds = %147
  %152 = load ptr, ptr %5, align 8, !tbaa !4
  %153 = getelementptr inbounds nuw %struct.jpeg_decompress_struct, ptr %152, i32 0, i32 0
  %154 = load ptr, ptr %153, align 8, !tbaa !34
  %155 = getelementptr inbounds nuw %struct.jpeg_error_mgr, ptr %154, i32 0, i32 5
  store i32 1044, ptr %155, align 8, !tbaa !35
  %156 = load i32, ptr %12, align 4, !tbaa !9
  %157 = load ptr, ptr %5, align 8, !tbaa !4
  %158 = getelementptr inbounds nuw %struct.jpeg_decompress_struct, ptr %157, i32 0, i32 0
  %159 = load ptr, ptr %158, align 8, !tbaa !34
  %160 = getelementptr inbounds nuw %struct.jpeg_error_mgr, ptr %159, i32 0, i32 6
  %161 = getelementptr inbounds [8 x i32], ptr %160, i64 0, i64 0
  store i32 %156, ptr %161, align 4, !tbaa !38
  %162 = load ptr, ptr %5, align 8, !tbaa !4
  %163 = getelementptr inbounds nuw %struct.jpeg_decompress_struct, ptr %162, i32 0, i32 0
  %164 = load ptr, ptr %163, align 8, !tbaa !34
  %165 = getelementptr inbounds nuw %struct.jpeg_error_mgr, ptr %164, i32 0, i32 0
  %166 = load ptr, ptr %165, align 8, !tbaa !39
  %167 = load ptr, ptr %5, align 8, !tbaa !4
  call void %166(ptr noundef %167)
  br label %168

168:                                              ; preds = %151, %147
  br label %169

169:                                              ; preds = %186, %168
  %170 = load i32, ptr %12, align 4, !tbaa !9
  %171 = load i32, ptr %7, align 4, !tbaa !9
  %172 = icmp slt i32 %170, %171
  br i1 %172, label %173, label %189

173:                                              ; preds = %169
  %174 = load ptr, ptr %11, align 8, !tbaa !82
  %175 = call i32 @putc(i32 noundef 0, ptr noundef %174)
  %176 = load ptr, ptr %11, align 8, !tbaa !82
  %177 = call i32 @putc(i32 noundef 0, ptr noundef %176)
  %178 = load ptr, ptr %11, align 8, !tbaa !82
  %179 = call i32 @putc(i32 noundef 0, ptr noundef %178)
  %180 = load i32, ptr %8, align 4, !tbaa !9
  %181 = icmp eq i32 %180, 4
  br i1 %181, label %182, label %185

182:                                              ; preds = %173
  %183 = load ptr, ptr %11, align 8, !tbaa !82
  %184 = call i32 @putc(i32 noundef 0, ptr noundef %183)
  br label %185

185:                                              ; preds = %182, %173
  br label %186

186:                                              ; preds = %185
  %187 = load i32, ptr %12, align 4, !tbaa !9
  %188 = add nsw i32 %187, 1
  store i32 %188, ptr %12, align 4, !tbaa !9
  br label %169, !llvm.loop !109

189:                                              ; preds = %169
  call void @llvm.lifetime.end.p0(i64 4, ptr %12) #7
  call void @llvm.lifetime.end.p0(i64 8, ptr %11) #7
  call void @llvm.lifetime.end.p0(i64 4, ptr %10) #7
  call void @llvm.lifetime.end.p0(i64 8, ptr %9) #7
  ret void
}