; Function Attrs: nounwind uwtable
define internal fastcc void @write_colormap(ptr noundef %0, ptr captures(none) %.32.val, i32 noundef range(i32 1, 257) %1, i32 noundef range(i32 3, 5) %2) unnamed_addr #0 {
  %4 = getelementptr inbounds nuw i8, ptr %0, i64 160
  %5 = load ptr, ptr %4, align 8, !tbaa !87
  %6 = getelementptr inbounds nuw i8, ptr %0, i64 156
  %7 = load i32, ptr %6, align 4, !tbaa !88
  %.not = icmp eq ptr %5, null
  br i1 %.not, label %.preheader, label %14

.preheader:                                       ; preds = %3
  %8 = icmp eq i32 %2, 4
  br i1 %8, label %.preheader.split.us, label %.preheader.split

.preheader.split.us:                              ; preds = %.preheader, %.preheader.split.us
  %.310.us = phi i32 [ %13, %.preheader.split.us ], [ 0, %.preheader ]
  %9 = tail call i32 @putc(i32 noundef %.310.us, ptr noundef %.32.val)
  %10 = tail call i32 @putc(i32 noundef %.310.us, ptr noundef %.32.val)
  %11 = tail call i32 @putc(i32 noundef %.310.us, ptr noundef %.32.val)
  %12 = tail call i32 @putc(i32 noundef 0, ptr noundef %.32.val)
  %13 = add nuw nsw i32 %.310.us, 1
  %exitcond42.not = icmp eq i32 %13, 256
  br i1 %exitcond42.not, label %.loopexit, label %.preheader.split.us, !llvm.loop !89

14:                                               ; preds = %3
  %15 = getelementptr inbounds nuw i8, ptr %0, i64 144
  %16 = load i32, ptr %15, align 8, !tbaa !90
  %17 = icmp eq i32 %16, 3
  %18 = icmp sgt i32 %7, 0
  br i1 %17, label %.preheader1, label %.preheader3

.preheader3:                                      ; preds = %14
  br i1 %18, label %.lr.ph, label %.lr.ph13

.lr.ph:                                           ; preds = %.preheader3
  %19 = icmp eq i32 %2, 4
  %wide.trip.count29 = zext nneg i32 %7 to i64
  br i1 %19, label %.lr.ph.split.us, label %.lr.ph.split

.lr.ph.split.us:                                  ; preds = %.lr.ph, %.lr.ph.split.us
  %indvars.iv26 = phi i64 [ %indvars.iv.next27, %.lr.ph.split.us ], [ 0, %.lr.ph ]
  %20 = load ptr, ptr %5, align 8, !tbaa !72
  %21 = getelementptr inbounds nuw i8, ptr %20, i64 %indvars.iv26
  %22 = load i8, ptr %21, align 1, !tbaa !35
  %23 = zext i8 %22 to i32
  %24 = tail call i32 @putc(i32 noundef %23, ptr noundef %.32.val)
  %25 = load ptr, ptr %5, align 8, !tbaa !72
  %26 = getelementptr inbounds nuw i8, ptr %25, i64 %indvars.iv26
  %27 = load i8, ptr %26, align 1, !tbaa !35
  %28 = zext i8 %27 to i32
  %29 = tail call i32 @putc(i32 noundef %28, ptr noundef %.32.val)
  %30 = load ptr, ptr %5, align 8, !tbaa !72
  %31 = getelementptr inbounds nuw i8, ptr %30, i64 %indvars.iv26
  %32 = load i8, ptr %31, align 1, !tbaa !35
  %33 = zext i8 %32 to i32
  %34 = tail call i32 @putc(i32 noundef %33, ptr noundef %.32.val)
  %35 = tail call i32 @putc(i32 noundef 0, ptr noundef %.32.val)
  %indvars.iv.next27 = add nuw nsw i64 %indvars.iv26, 1
  %exitcond30.not = icmp eq i64 %indvars.iv.next27, %wide.trip.count29
  br i1 %exitcond30.not, label %.loopexit, label %.lr.ph.split.us, !llvm.loop !91

.preheader1:                                      ; preds = %14
  br i1 %18, label %.lr.ph7, label %.lr.ph13

.lr.ph7:                                          ; preds = %.preheader1
  %36 = getelementptr inbounds nuw i8, ptr %5, i64 16
  %37 = getelementptr inbounds nuw i8, ptr %5, i64 8
  %38 = icmp eq i32 %2, 4
  %wide.trip.count39 = zext nneg i32 %7 to i64
  br i1 %38, label %.lr.ph7.split.us, label %.lr.ph7.split

.lr.ph7.split.us:                                 ; preds = %.lr.ph7, %.lr.ph7.split.us
  %indvars.iv36 = phi i64 [ %indvars.iv.next37, %.lr.ph7.split.us ], [ 0, %.lr.ph7 ]
  %39 = load ptr, ptr %36, align 8, !tbaa !72
  %40 = getelementptr inbounds nuw i8, ptr %39, i64 %indvars.iv36
  %41 = load i8, ptr %40, align 1, !tbaa !35
  %42 = zext i8 %41 to i32
  %43 = tail call i32 @putc(i32 noundef %42, ptr noundef %.32.val)
  %44 = load ptr, ptr %37, align 8, !tbaa !72
  %45 = getelementptr inbounds nuw i8, ptr %44, i64 %indvars.iv36
  %46 = load i8, ptr %45, align 1, !tbaa !35
  %47 = zext i8 %46 to i32
  %48 = tail call i32 @putc(i32 noundef %47, ptr noundef %.32.val)
  %49 = load ptr, ptr %5, align 8, !tbaa !72
  %50 = getelementptr inbounds nuw i8, ptr %49, i64 %indvars.iv36
  %51 = load i8, ptr %50, align 1, !tbaa !35
  %52 = zext i8 %51 to i32
  %53 = tail call i32 @putc(i32 noundef %52, ptr noundef %.32.val)
  %54 = tail call i32 @putc(i32 noundef 0, ptr noundef %.32.val)
  %indvars.iv.next37 = add nuw nsw i64 %indvars.iv36, 1
  %exitcond40.not = icmp eq i64 %indvars.iv.next37, %wide.trip.count39
  br i1 %exitcond40.not, label %.loopexit, label %.lr.ph7.split.us, !llvm.loop !92

.lr.ph7.split:                                    ; preds = %.lr.ph7, %.lr.ph7.split
  %indvars.iv31 = phi i64 [ %indvars.iv.next32, %.lr.ph7.split ], [ 0, %.lr.ph7 ]
  %55 = load ptr, ptr %36, align 8, !tbaa !72
  %56 = getelementptr inbounds nuw i8, ptr %55, i64 %indvars.iv31
  %57 = load i8, ptr %56, align 1, !tbaa !35
  %58 = zext i8 %57 to i32
  %59 = tail call i32 @putc(i32 noundef %58, ptr noundef %.32.val)
  %60 = load ptr, ptr %37, align 8, !tbaa !72
  %61 = getelementptr inbounds nuw i8, ptr %60, i64 %indvars.iv31
  %62 = load i8, ptr %61, align 1, !tbaa !35
  %63 = zext i8 %62 to i32
  %64 = tail call i32 @putc(i32 noundef %63, ptr noundef %.32.val)
  %65 = load ptr, ptr %5, align 8, !tbaa !72
  %66 = getelementptr inbounds nuw i8, ptr %65, i64 %indvars.iv31
  %67 = load i8, ptr %66, align 1, !tbaa !35
  %68 = zext i8 %67 to i32
  %69 = tail call i32 @putc(i32 noundef %68, ptr noundef %.32.val)
  %indvars.iv.next32 = add nuw nsw i64 %indvars.iv31, 1
  %exitcond35.not = icmp eq i64 %indvars.iv.next32, %wide.trip.count39
  br i1 %exitcond35.not, label %.loopexit, label %.lr.ph7.split, !llvm.loop !92

.lr.ph.split:                                     ; preds = %.lr.ph, %.lr.ph.split
  %indvars.iv = phi i64 [ %indvars.iv.next, %.lr.ph.split ], [ 0, %.lr.ph ]
  %70 = load ptr, ptr %5, align 8, !tbaa !72
  %71 = getelementptr inbounds nuw i8, ptr %70, i64 %indvars.iv
  %72 = load i8, ptr %71, align 1, !tbaa !35
  %73 = zext i8 %72 to i32
  %74 = tail call i32 @putc(i32 noundef %73, ptr noundef %.32.val)
  %75 = load ptr, ptr %5, align 8, !tbaa !72
  %76 = getelementptr inbounds nuw i8, ptr %75, i64 %indvars.iv
  %77 = load i8, ptr %76, align 1, !tbaa !35
  %78 = zext i8 %77 to i32
  %79 = tail call i32 @putc(i32 noundef %78, ptr noundef %.32.val)
  %80 = load ptr, ptr %5, align 8, !tbaa !72
  %81 = getelementptr inbounds nuw i8, ptr %80, i64 %indvars.iv
  %82 = load i8, ptr %81, align 1, !tbaa !35
  %83 = zext i8 %82 to i32
  %84 = tail call i32 @putc(i32 noundef %83, ptr noundef %.32.val)
  %indvars.iv.next = add nuw nsw i64 %indvars.iv, 1
  %exitcond.not = icmp eq i64 %indvars.iv.next, %wide.trip.count29
  br i1 %exitcond.not, label %.loopexit, label %.lr.ph.split, !llvm.loop !91

.preheader.split:                                 ; preds = %.preheader, %.preheader.split
  %.310 = phi i32 [ %88, %.preheader.split ], [ 0, %.preheader ]
  %85 = tail call i32 @putc(i32 noundef %.310, ptr noundef %.32.val)
  %86 = tail call i32 @putc(i32 noundef %.310, ptr noundef %.32.val)
  %87 = tail call i32 @putc(i32 noundef %.310, ptr noundef %.32.val)
  %88 = add nuw nsw i32 %.310, 1
  %exitcond41.not = icmp eq i32 %88, 256
  br i1 %exitcond41.not, label %.loopexit, label %.preheader.split, !llvm.loop !89

.loopexit:                                        ; preds = %.lr.ph.split, %.lr.ph.split.us, %.lr.ph7.split, %.lr.ph7.split.us, %.preheader.split, %.preheader.split.us
  %.2 = phi i32 [ 256, %.preheader.split.us ], [ 256, %.preheader.split ], [ %7, %.lr.ph7.split.us ], [ %7, %.lr.ph7.split ], [ %7, %.lr.ph.split.us ], [ %7, %.lr.ph.split ]
  %89 = icmp samesign ugt i32 %.2, %1
  br i1 %89, label %90, label %96

90:                                               ; preds = %.loopexit
  %91 = load ptr, ptr %0, align 8, !tbaa !31
  %92 = getelementptr inbounds nuw i8, ptr %91, i64 40
  store i32 1044, ptr %92, align 8, !tbaa !32
  %93 = getelementptr inbounds nuw i8, ptr %91, i64 44
  store i32 %.2, ptr %93, align 4, !tbaa !35
  %94 = load ptr, ptr %0, align 8, !tbaa !31
  %95 = load ptr, ptr %94, align 8, !tbaa !36
  tail call void %95(ptr noundef nonnull %0) #7
  br label %96

96:                                               ; preds = %90, %.loopexit
  %97 = icmp samesign ult i32 %.2, %1
  br i1 %97, label %.lr.ph13, label %._crit_edge

.lr.ph13:                                         ; preds = %.preheader1, %.preheader3, %96
  %.24648 = phi i32 [ %.2, %96 ], [ 0, %.preheader3 ], [ 0, %.preheader1 ]
  %98 = icmp eq i32 %2, 4
  br i1 %98, label %.lr.ph13.split.us, label %.lr.ph13.split

.lr.ph13.split.us:                                ; preds = %.lr.ph13, %.lr.ph13.split.us
  %.412.us = phi i32 [ %103, %.lr.ph13.split.us ], [ %.24648, %.lr.ph13 ]
  %99 = tail call i32 @putc(i32 noundef 0, ptr noundef %.32.val)
  %100 = tail call i32 @putc(i32 noundef 0, ptr noundef %.32.val)
  %101 = tail call i32 @putc(i32 noundef 0, ptr noundef %.32.val)
  %102 = tail call i32 @putc(i32 noundef 0, ptr noundef %.32.val)
  %103 = add nuw i32 %.412.us, 1
  %exitcond44.not = icmp eq i32 %103, %1
  br i1 %exitcond44.not, label %._crit_edge, label %.lr.ph13.split.us, !llvm.loop !93

.lr.ph13.split:                                   ; preds = %.lr.ph13, %.lr.ph13.split
  %.412 = phi i32 [ %107, %.lr.ph13.split ], [ %.24648, %.lr.ph13 ]
  %104 = tail call i32 @putc(i32 noundef 0, ptr noundef %.32.val)
  %105 = tail call i32 @putc(i32 noundef 0, ptr noundef %.32.val)
  %106 = tail call i32 @putc(i32 noundef 0, ptr noundef %.32.val)
  %107 = add nuw i32 %.412, 1
  %exitcond43.not = icmp eq i32 %107, %1
  br i1 %exitcond43.not, label %._crit_edge, label %.lr.ph13.split, !llvm.loop !93

._crit_edge:                                      ; preds = %.lr.ph13.split, %.lr.ph13.split.us, %96
  ret void
}